target datalayout = "e-m:e-p270:32:32-p271:32:32-p272:64:64-i64:64-i128:128-f80:128-n8:16:32:64-S128"
target triple = "x86_64-unknown-linux-gnu"

%class.btVector3 = type { [4 x float] }
%class.btHingeConstraint = type { %class.btTypedConstraint, [3 x %class.btJacobianEntry], [3 x %class.btJacobianEntry], %class.btTransform, %class.btTransform, float, float, %class.btAngularLimit, float, float, float, float, i8, i8, i8, i8, i8, float, i32, float, float, float, float }
%class.btTypedConstraint = type { ptr, %struct.btTypedObject, i32, %union.anon.0, float, i8, i8, i32, ptr, ptr, float, float, ptr }
%struct.btTypedObject = type { i32 }
%union.anon.0 = type { ptr }
%class.btJacobianEntry = type { %class.btVector3, %class.btVector3, %class.btVector3, %class.btVector3, %class.btVector3, float }
%class.btTransform = type { %class.btMatrix3x3, %class.btVector3 }
%class.btMatrix3x3 = type { [3 x %class.btVector3] }
%class.btAngularLimit = type <{ float, float, float, float, float, float, float, i8, [3 x i8] }>

; Function Attrs: mustprogress nounwind uwtable
define dso_local void @_ZN17btHingeConstraint8setParamEifi(ptr noundef nonnull align 8 dereferenceable(792) %this, i32 noundef %num, float noundef %value, i32 noundef %axis) unnamed_addr #1 align 2 {
entry:
  %this.addr = alloca ptr, align 8
  %num.addr = alloca i32, align 4
  %value.addr = alloca float, align 4
  %axis.addr = alloca i32, align 4
  store ptr %this, ptr %this.addr, align 8
  store i32 %num, ptr %num.addr, align 4
  store float %value, ptr %value.addr, align 4
  store i32 %axis, ptr %axis.addr, align 4
  %this1 = load ptr, ptr %this.addr, align 8
  %0 = load i32, ptr %axis.addr, align 4
  %cmp = icmp eq i32 %0, -1
  br i1 %cmp, label %if.then, label %lor.lhs.false

lor.lhs.false:                                    ; preds = %entry
  %1 = load i32, ptr %axis.addr, align 4
  %cmp2 = icmp eq i32 %1, 5
  br i1 %cmp2, label %if.then, label %if.else

if.then:                                          ; preds = %lor.lhs.false, %entry
  %2 = load i32, ptr %num.addr, align 4
  switch i32 %2, label %sw.default [
    i32 2, label %sw.bb
    i32 4, label %sw.bb3
    i32 3, label %sw.bb6
    i32 1, label %sw.bb9
  ]

sw.bb:                                            ; preds = %if.then
  %3 = load float, ptr %value.addr, align 4
  %m_stopERP = getelementptr inbounds %class.btHingeConstraint, ptr %this1, i32 0, i32 22
  store float %3, ptr %m_stopERP, align 4
  %m_flags = getelementptr inbounds %class.btHingeConstraint, ptr %this1, i32 0, i32 18
  %4 = load i32, ptr %m_flags, align 4
  %or = or i32 %4, 2
  store i32 %or, ptr %m_flags, align 4
  br label %sw.epilog

sw.bb3:                                           ; preds = %if.then
  %5 = load float, ptr %value.addr, align 4
  %m_stopCFM = getelementptr inbounds %class.btHingeConstraint, ptr %this1, i32 0, i32 21
  store float %5, ptr %m_stopCFM, align 8
  %m_flags4 = getelementptr inbounds %class.btHingeConstraint, ptr %this1, i32 0, i32 18
  %6 = load i32, ptr %m_flags4, align 4
  %or5 = or i32 %6, 1
  store i32 %or5, ptr %m_flags4, align 4
  br label %sw.epilog

sw.bb6:                                           ; preds = %if.then
  %7 = load float, ptr %value.addr, align 4
  %m_normalCFM = getelementptr inbounds %class.btHingeConstraint, ptr %this1, i32 0, i32 19
  store float %7, ptr %m_normalCFM, align 8
  %m_flags7 = getelementptr inbounds %class.btHingeConstraint, ptr %this1, i32 0, i32 18
  %8 = load i32, ptr %m_flags7, align 4
  %or8 = or i32 %8, 4
  store i32 %or8, ptr %m_flags7, align 4
  br label %sw.epilog

sw.bb9:                                           ; preds = %if.then
  %9 = load float, ptr %value.addr, align 4
  %m_normalERP = getelementptr inbounds %class.btHingeConstraint, ptr %this1, i32 0, i32 20
  store float %9, ptr %m_normalERP, align 4
  %m_flags10 = getelementptr inbounds %class.btHingeConstraint, ptr %this1, i32 0, i32 18
  %10 = load i32, ptr %m_flags10, align 4
  %or11 = or i32 %10, 8
  store i32 %or11, ptr %m_flags10, align 4
  br label %sw.epilog

sw.default:                                       ; preds = %if.then
  br label %sw.epilog

sw.epilog:                                        ; preds = %sw.default, %sw.bb9, %sw.bb6, %sw.bb3, %sw.bb
  br label %if.end

if.else:                                          ; preds = %lor.lhs.false
  br label %if.end

if.end:                                           ; preds = %if.else, %sw.epilog
  ret void
}