; Function Attrs: mustprogress nofree norecurse nosync nounwind willreturn memory(argmem: readwrite) uwtable
define dso_local void @_ZN17btHingeConstraint8setParamEifi(ptr nocapture noundef nonnull align 8 dereferenceable(792) %this, i32 noundef %num, float noundef %value, i32 noundef %axis) unnamed_addr #8 align 2 {
entry:
  switch i32 %axis, label %if.end [
    i32 -1, label %if.then
    i32 5, label %if.then
  ]

if.then:                                          ; preds = %entry, %entry
  switch i32 %num, label %if.end [
    i32 2, label %sw.bb
    i32 4, label %sw.bb3
    i32 3, label %sw.bb6
    i32 1, label %sw.bb9
  ]

sw.bb:                                            ; preds = %if.then
  %m_stopERP = getelementptr inbounds i8, ptr %this, i64 788
  store float %value, ptr %m_stopERP, align 4
  br label %if.end.sink.split

sw.bb3:                                           ; preds = %if.then
  %m_stopCFM = getelementptr inbounds i8, ptr %this, i64 784
  store float %value, ptr %m_stopCFM, align 8
  br label %if.end.sink.split

sw.bb6:                                           ; preds = %if.then
  %m_normalCFM = getelementptr inbounds i8, ptr %this, i64 776
  store float %value, ptr %m_normalCFM, align 8
  br label %if.end.sink.split

sw.bb9:                                           ; preds = %if.then
  %m_normalERP = getelementptr inbounds i8, ptr %this, i64 780
  store float %value, ptr %m_normalERP, align 4
  br label %if.end.sink.split

if.end.sink.split:                                ; preds = %sw.bb9, %sw.bb6, %sw.bb3, %sw.bb
  %.sink5 = phi i32 [ 2, %sw.bb ], [ 1, %sw.bb3 ], [ 4, %sw.bb6 ], [ 8, %sw.bb9 ]
  %m_flags10 = getelementptr inbounds i8, ptr %this, i64 772
  %0 = load i32, ptr %m_flags10, align 4
  %or = or i32 %0, %.sink5
  store i32 %or, ptr %m_flags10, align 4
  br label %if.end

if.end:                                           ; preds = %if.end.sink.split, %entry, %if.then
  ret void
}